; ModuleID = '13/1429.c'
source_filename = "13/1429.c"
target datalayout = "e-m:e-p270:32:32-p271:32:32-p272:64:64-i64:64-f80:128-n8:16:32:64-S128"
target triple = "x86_64-pc-linux-gnu"

@.str = private unnamed_addr constant [3 x i8] c"%d\00", align 1
@.str.1 = private unnamed_addr constant [4 x i8] c"%d \00", align 1

; Function Attrs: noinline nounwind uwtable
define dso_local i32 @main() #0 {
  %1 = alloca i32, align 4
  %2 = alloca i32, align 4
  %3 = alloca i32, align 4
  %4 = alloca i32*, align 8
  %5 = alloca i32, align 4
  %6 = alloca i32, align 4
  %7 = alloca i32, align 4
  store i32 0, i32* %1, align 4
  %8 = call i32 (i8*, ...) @__isoc99_scanf(i8* getelementptr inbounds ([3 x i8], [3 x i8]* @.str, i64 0, i64 0), i32* %3)
  %9 = load i32, i32* %3, align 4
  %10 = sext i32 %9 to i64
  %11 = mul i64 4, %10
  %12 = call noalias i8* @malloc(i64 %11) #3
  %13 = bitcast i8* %12 to i32*
  store i32* %13, i32** %4, align 8
  store i32 0, i32* %5, align 4
  br label %14

14:                                               ; preds = %24, %0
  %15 = load i32, i32* %5, align 4
  %16 = load i32, i32* %3, align 4
  %17 = icmp slt i32 %15, %16
  br i1 %17, label %18, label %27

18:                                               ; preds = %14
  %19 = load i32*, i32** %4, align 8
  %20 = load i32, i32* %5, align 4
  %21 = sext i32 %20 to i64
  %22 = getelementptr inbounds i32, i32* %19, i64 %21
  %23 = call i32 (i8*, ...) @__isoc99_scanf(i8* getelementptr inbounds ([3 x i8], [3 x i8]* @.str, i64 0, i64 0), i32* %22)
  br label %24

24:                                               ; preds = %18
  %25 = load i32, i32* %5, align 4
  %26 = add nsw i32 %25, 1
  store i32 %26, i32* %5, align 4
  br label %14

27:                                               ; preds = %14
  store i32 1, i32* %2, align 4
  br label %28

28:                                               ; preds = %79, %27
  %29 = load i32, i32* %2, align 4
  %30 = load i32, i32* %3, align 4
  %31 = icmp slt i32 %29, %30
  br i1 %31, label %32, label %82

32:                                               ; preds = %28
  store i32 0, i32* %6, align 4
  br label %33

33:                                               ; preds = %75, %32
  %34 = load i32, i32* %6, align 4
  %35 = load i32, i32* %2, align 4
  %36 = icmp slt i32 %34, %35
  br i1 %36, label %37, label %78

37:                                               ; preds = %33
  %38 = load i32*, i32** %4, align 8
  %39 = load i32, i32* %2, align 4
  %40 = sext i32 %39 to i64
  %41 = getelementptr inbounds i32, i32* %38, i64 %40
  %42 = load i32, i32* %41, align 4
  %43 = load i32*, i32** %4, align 8
  %44 = load i32, i32* %6, align 4
  %45 = sext i32 %44 to i64
  %46 = getelementptr inbounds i32, i32* %43, i64 %45
  %47 = load i32, i32* %46, align 4
  %48 = icmp eq i32 %42, %47
  br i1 %48, label %49, label %74

49:                                               ; preds = %37
  %50 = load i32, i32* %2, align 4
  store i32 %50, i32* %7, align 4
  br label %51

51:                                               ; preds = %66, %49
  %52 = load i32, i32* %7, align 4
  %53 = load i32, i32* %3, align 4
  %54 = icmp slt i32 %52, %53
  br i1 %54, label %55, label %69

55:                                               ; preds = %51
  %56 = load i32*, i32** %4, align 8
  %57 = load i32, i32* %7, align 4
  %58 = add nsw i32 %57, 1
  %59 = sext i32 %58 to i64
  %60 = getelementptr inbounds i32, i32* %56, i64 %59
  %61 = load i32, i32* %60, align 4
  %62 = load i32*, i32** %4, align 8
  %63 = load i32, i32* %7, align 4
  %64 = sext i32 %63 to i64
  %65 = getelementptr inbounds i32, i32* %62, i64 %64
  store i32 %61, i32* %65, align 4
  br label %66

66:                                               ; preds = %55
  %67 = load i32, i32* %7, align 4
  %68 = add nsw i32 %67, 1
  store i32 %68, i32* %7, align 4
  br label %51

69:                                               ; preds = %51
  %70 = load i32, i32* %3, align 4
  %71 = add nsw i32 %70, -1
  store i32 %71, i32* %3, align 4
  %72 = load i32, i32* %2, align 4
  %73 = add nsw i32 %72, -1
  store i32 %73, i32* %2, align 4
  br label %74

74:                                               ; preds = %69, %37
  br label %75

75:                                               ; preds = %74
  %76 = load i32, i32* %6, align 4
  %77 = add nsw i32 %76, 1
  store i32 %77, i32* %6, align 4
  br label %33

78:                                               ; preds = %33
  br label %79

79:                                               ; preds = %78
  %80 = load i32, i32* %2, align 4
  %81 = add nsw i32 %80, 1
  store i32 %81, i32* %2, align 4
  br label %28

82:                                               ; preds = %28
  store i32 0, i32* %2, align 4
  br label %83

83:                                               ; preds = %107, %82
  %84 = load i32, i32* %2, align 4
  %85 = load i32, i32* %3, align 4
  %86 = icmp slt i32 %84, %85
  br i1 %86, label %87, label %110

87:                                               ; preds = %83
  %88 = load i32, i32* %2, align 4
  %89 = load i32, i32* %3, align 4
  %90 = sub nsw i32 %89, 1
  %91 = icmp eq i32 %88, %90
  br i1 %91, label %92, label %99

92:                                               ; preds = %87
  %93 = load i32*, i32** %4, align 8
  %94 = load i32, i32* %2, align 4
  %95 = sext i32 %94 to i64
  %96 = getelementptr inbounds i32, i32* %93, i64 %95
  %97 = load i32, i32* %96, align 4
  %98 = call i32 (i8*, ...) @printf(i8* getelementptr inbounds ([3 x i8], [3 x i8]* @.str, i64 0, i64 0), i32 %97)
  br label %106

99:                                               ; preds = %87
  %100 = load i32*, i32** %4, align 8
  %101 = load i32, i32* %2, align 4
  %102 = sext i32 %101 to i64
  %103 = getelementptr inbounds i32, i32* %100, i64 %102
  %104 = load i32, i32* %103, align 4
  %105 = call i32 (i8*, ...) @printf(i8* getelementptr inbounds ([4 x i8], [4 x i8]* @.str.1, i64 0, i64 0), i32 %104)
  br label %106

106:                                              ; preds = %99, %92
  br label %107

107:                                              ; preds = %106
  %108 = load i32, i32* %2, align 4
  %109 = add nsw i32 %108, 1
  store i32 %109, i32* %2, align 4
  br label %83

110:                                              ; preds = %83
  ret i32 0
}

declare dso_local i32 @__isoc99_scanf(i8*, ...) #1

; Function Attrs: nounwind
declare dso_local noalias i8* @malloc(i64) #2

declare dso_local i32 @printf(i8*, ...) #1


!llvm.module.flags = !{!0}
!llvm.ident = !{!1}

!0 = !{i32 1, !"wchar_size", i32 4}
!1 = !{!"clang version 10.0.0-4ubuntu1 "}
